target datalayout = "e-m:e-p270:32:32-p271:32:32-p272:64:64-i64:64-i128:128-f80:128-n8:16:32:64-S128"
target triple = "x86_64-pc-linux-gnu"

%struct.Abc_Ntk_t_ = type { i32, i32, ptr, ptr, ptr, ptr, ptr, ptr, ptr, ptr, ptr, ptr, ptr, [11 x i32], i32, i32, i32, i32, ptr, i32, ptr, ptr, i32, i32, i32, double, i32, %struct.Vec_Int_t_, ptr, ptr, ptr, ptr, ptr, float, i32, ptr, ptr, ptr, ptr, ptr, ptr, ptr, ptr, ptr, ptr, ptr, ptr, ptr, ptr, ptr, ptr, ptr, ptr, ptr, ptr, ptr }
%struct.Vec_Int_t_ = type { i32, i32, ptr }
%struct.Abc_Obj_t_ = type { ptr, ptr, i32, i32, %struct.Vec_Int_t_, %struct.Vec_Int_t_, %union.anon, %union.anon.0 }
%union.anon = type { ptr }
%union.anon.0 = type { ptr }
%struct.Vec_Ptr_t_ = type { i32, i32, ptr }
%struct.timespec = type { i64, i64 }

@.str.134 = private unnamed_addr constant [15 x i8] c"Miter:  I =%6d\00", align 1
@.str.135 = private unnamed_addr constant [9 x i8] c"  N =%7d\00", align 1
@.str.136 = private unnamed_addr constant [9 x i8] c"  ? =%7d\00", align 1
@.str.137 = private unnamed_addr constant [9 x i8] c"  U =%6d\00", align 1
@.str.138 = private unnamed_addr constant [9 x i8] c"  S =%6d\00", align 1
@.str.139 = private unnamed_addr constant [12 x i8] c" %7.2f sec\0A\00", align 1
@.str.140 = private unnamed_addr constant [49 x i8] c"The first satisfiable output is number %d (%s).\0A\00", align 1

; Function Attrs: nounwind uwtable
define internal ptr @Abc_ObjNotCond(ptr noundef %0, i32 noundef %1) #0 {
  %3 = alloca ptr, align 8
  %4 = alloca i32, align 4
  store ptr %0, ptr %3, align 8
  store i32 %1, ptr %4, align 4
  %5 = load ptr, ptr %3, align 8
  %6 = ptrtoint ptr %5 to i64
  %7 = load i32, ptr %4, align 4
  %8 = icmp ne i32 %7, 0
  %9 = zext i1 %8 to i32
  %10 = sext i32 %9 to i64
  %11 = xor i64 %6, %10
  %12 = inttoptr i64 %11 to ptr
  ret ptr %12
}

; Function Attrs: nounwind uwtable
define internal i32 @Abc_ObjFaninC0(ptr noundef %0) #0 {
  %2 = alloca ptr, align 8
  store ptr %0, ptr %2, align 8
  %3 = load ptr, ptr %2, align 8
  %4 = getelementptr inbounds %struct.Abc_Obj_t_, ptr %3, i32 0, i32 3
  %5 = load i32, ptr %4, align 4
  %6 = lshr i32 %5, 10
  %7 = and i32 %6, 1
  ret i32 %7
}

; Function Attrs: nounwind uwtable
define internal ptr @Abc_ObjFanin0(ptr noundef %0) #0 {
  %2 = alloca ptr, align 8
  store ptr %0, ptr %2, align 8
  %3 = load ptr, ptr %2, align 8
  %4 = getelementptr inbounds %struct.Abc_Obj_t_, ptr %3, i32 0, i32 0
  %5 = load ptr, ptr %4, align 8
  %6 = getelementptr inbounds %struct.Abc_Ntk_t_, ptr %5, i32 0, i32 5
  %7 = load ptr, ptr %6, align 8
  %8 = getelementptr inbounds %struct.Vec_Ptr_t_, ptr %7, i32 0, i32 2
  %9 = load ptr, ptr %8, align 8
  %10 = load ptr, ptr %2, align 8
  %11 = getelementptr inbounds %struct.Abc_Obj_t_, ptr %10, i32 0, i32 4
  %12 = getelementptr inbounds %struct.Vec_Int_t_, ptr %11, i32 0, i32 2
  %13 = load ptr, ptr %12, align 8
  %14 = getelementptr inbounds i32, ptr %13, i64 0
  %15 = load i32, ptr %14, align 4
  %16 = sext i32 %15 to i64
  %17 = getelementptr inbounds ptr, ptr %9, i64 %16
  %18 = load ptr, ptr %17, align 8
  ret ptr %18
}

; Function Attrs: nounwind uwtable
define internal ptr @Vec_PtrEntry(ptr noundef %0, i32 noundef %1) #0 {
  %3 = alloca ptr, align 8
  %4 = alloca i32, align 4
  store ptr %0, ptr %3, align 8
  store i32 %1, ptr %4, align 4
  %5 = load ptr, ptr %3, align 8
  %6 = getelementptr inbounds %struct.Vec_Ptr_t_, ptr %5, i32 0, i32 2
  %7 = load ptr, ptr %6, align 8
  %8 = load i32, ptr %4, align 4
  %9 = sext i32 %8 to i64
  %10 = getelementptr inbounds ptr, ptr %7, i64 %9
  %11 = load ptr, ptr %10, align 8
  ret ptr %11
}

; Function Attrs: nounwind uwtable
define internal i32 @Vec_PtrSize(ptr noundef %0) #0 {
  %2 = alloca ptr, align 8
  store ptr %0, ptr %2, align 8
  %3 = load ptr, ptr %2, align 8
  %4 = getelementptr inbounds %struct.Vec_Ptr_t_, ptr %3, i32 0, i32 1
  %5 = load i32, ptr %4, align 4
  ret i32 %5
}

; Function Attrs: nounwind uwtable
define internal i32 @Abc_NtkNodeNum(ptr noundef %0) #0 {
  %2 = alloca ptr, align 8
  store ptr %0, ptr %2, align 8
  %3 = load ptr, ptr %2, align 8
  %4 = getelementptr inbounds %struct.Abc_Ntk_t_, ptr %3, i32 0, i32 13
  %5 = getelementptr inbounds [11 x i32], ptr %4, i64 0, i64 7
  %6 = load i32, ptr %5, align 4
  ret i32 %6
}

; Function Attrs: nounwind uwtable
define internal i32 @Abc_ObjIsComplement(ptr noundef %0) #0 {
  %2 = alloca ptr, align 8
  store ptr %0, ptr %2, align 8
  %3 = load ptr, ptr %2, align 8
  %4 = ptrtoint ptr %3 to i64
  %5 = and i64 %4, 1
  %6 = trunc i64 %5 to i32
  ret i32 %6
}

; Function Attrs: nounwind uwtable
define internal i32 @Abc_ObjIsPi(ptr noundef %0) #0 {
  %2 = alloca ptr, align 8
  store ptr %0, ptr %2, align 8
  %3 = load ptr, ptr %2, align 8
  %4 = getelementptr inbounds %struct.Abc_Obj_t_, ptr %3, i32 0, i32 3
  %5 = load i32, ptr %4, align 4
  %6 = and i32 %5, 15
  %7 = icmp eq i32 %6, 2
  %8 = zext i1 %7 to i32
  ret i32 %8
}

; Function Attrs: nounwind uwtable
define internal ptr @Abc_ObjRegular(ptr noundef %0) #0 {
  %2 = alloca ptr, align 8
  store ptr %0, ptr %2, align 8
  %3 = load ptr, ptr %2, align 8
  %4 = ptrtoint ptr %3 to i64
  %5 = and i64 %4, -2
  %6 = inttoptr i64 %5 to ptr
  ret ptr %6
}

; Function Attrs: nounwind uwtable
define internal ptr @Abc_ObjNot(ptr noundef %0) #0 {
  %2 = alloca ptr, align 8
  store ptr %0, ptr %2, align 8
  %3 = load ptr, ptr %2, align 8
  %4 = ptrtoint ptr %3 to i64
  %5 = xor i64 %4, 1
  %6 = inttoptr i64 %5 to ptr
  ret ptr %6
}

; Function Attrs: nounwind uwtable
define internal ptr @Abc_ObjChild0(ptr noundef %0) #0 {
  %2 = alloca ptr, align 8
  store ptr %0, ptr %2, align 8
  %3 = load ptr, ptr %2, align 8
  %4 = call ptr @Abc_ObjFanin0(ptr noundef %3)
  %5 = load ptr, ptr %2, align 8
  %6 = call i32 @Abc_ObjFaninC0(ptr noundef %5)
  %7 = call ptr @Abc_ObjNotCond(ptr noundef %4, i32 noundef %6)
  ret ptr %7
}

; Function Attrs: nounwind uwtable
define internal ptr @Abc_NtkPo(ptr noundef %0, i32 noundef %1) #0 {
  %3 = alloca ptr, align 8
  %4 = alloca i32, align 4
  store ptr %0, ptr %3, align 8
  store i32 %1, ptr %4, align 4
  %5 = load ptr, ptr %3, align 8
  %6 = getelementptr inbounds %struct.Abc_Ntk_t_, ptr %5, i32 0, i32 7
  %7 = load ptr, ptr %6, align 8
  %8 = load i32, ptr %4, align 4
  %9 = call ptr @Vec_PtrEntry(ptr noundef %7, i32 noundef %8)
  ret ptr %9
}

; Function Attrs: nounwind uwtable
define internal i32 @Abc_NtkPoNum(ptr noundef %0) #0 {
  %2 = alloca ptr, align 8
  store ptr %0, ptr %2, align 8
  %3 = load ptr, ptr %2, align 8
  %4 = getelementptr inbounds %struct.Abc_Ntk_t_, ptr %3, i32 0, i32 7
  %5 = load ptr, ptr %4, align 8
  %6 = call i32 @Vec_PtrSize(ptr noundef %5)
  ret i32 %6
}

; Function Attrs: nounwind uwtable
define internal i32 @Abc_ObjFanoutNum(ptr noundef %0) #0 {
  %2 = alloca ptr, align 8
  store ptr %0, ptr %2, align 8
  %3 = load ptr, ptr %2, align 8
  %4 = getelementptr inbounds %struct.Abc_Obj_t_, ptr %3, i32 0, i32 5
  %5 = getelementptr inbounds %struct.Vec_Int_t_, ptr %4, i32 0, i32 1
  %6 = load i32, ptr %5, align 4
  ret i32 %6
}

; Function Attrs: nounwind uwtable
define internal ptr @Abc_NtkPi(ptr noundef %0, i32 noundef %1) #0 {
  %3 = alloca ptr, align 8
  %4 = alloca i32, align 4
  store ptr %0, ptr %3, align 8
  store i32 %1, ptr %4, align 4
  %5 = load ptr, ptr %3, align 8
  %6 = getelementptr inbounds %struct.Abc_Ntk_t_, ptr %5, i32 0, i32 6
  %7 = load ptr, ptr %6, align 8
  %8 = load i32, ptr %4, align 4
  %9 = call ptr @Vec_PtrEntry(ptr noundef %7, i32 noundef %8)
  ret ptr %9
}

; Function Attrs: nounwind uwtable
define internal i32 @Abc_NtkPiNum(ptr noundef %0) #0 {
  %2 = alloca ptr, align 8
  store ptr %0, ptr %2, align 8
  %3 = load ptr, ptr %2, align 8
  %4 = getelementptr inbounds %struct.Abc_Ntk_t_, ptr %3, i32 0, i32 6
  %5 = load ptr, ptr %4, align 8
  %6 = call i32 @Vec_PtrSize(ptr noundef %5)
  ret i32 %6
}

; Function Attrs: nounwind uwtable
define internal i64 @Abc_Clock() #0 {
  %1 = alloca i64, align 8
  %2 = alloca %struct.timespec, align 8
  %3 = alloca i64, align 8
  %4 = call i32 @clock_gettime(i32 noundef 1, ptr noundef %2) #11
  %5 = icmp slt i32 %4, 0
  br i1 %5, label %6, label %7

6:                                                ; preds = %0
  store i64 -1, ptr %1, align 8
  br label %18

7:                                                ; preds = %0
  %8 = getelementptr inbounds %struct.timespec, ptr %2, i32 0, i32 0
  %9 = load i64, ptr %8, align 8
  %10 = mul nsw i64 %9, 1000000
  store i64 %10, ptr %3, align 8
  %11 = getelementptr inbounds %struct.timespec, ptr %2, i32 0, i32 1
  %12 = load i64, ptr %11, align 8
  %13 = mul nsw i64 %12, 1000000
  %14 = sdiv i64 %13, 1000000000
  %15 = load i64, ptr %3, align 8
  %16 = add nsw i64 %15, %14
  store i64 %16, ptr %3, align 8
  %17 = load i64, ptr %3, align 8
  store i64 %17, ptr %1, align 8
  br label %18

18:                                               ; preds = %7, %6
  %19 = load i64, ptr %1, align 8
  ret i64 %19
}

; Function Attrs: nounwind uwtable
define void @Abc_NtkPrintMiter(ptr noundef %0) #0 {
  %2 = alloca ptr, align 8
  %3 = alloca ptr, align 8
  %4 = alloca ptr, align 8
  %5 = alloca ptr, align 8
  %6 = alloca i32, align 4
  %7 = alloca i32, align 4
  %8 = alloca i64, align 8
  %9 = alloca i32, align 4
  %10 = alloca i32, align 4
  %11 = alloca i32, align 4
  %12 = alloca i32, align 4
  store ptr %0, ptr %2, align 8
  %13 = load ptr, ptr %2, align 8
  %14 = call ptr @Abc_AigConst1(ptr noundef %13)
  store ptr %14, ptr %5, align 8
  store i32 -1, ptr %7, align 4
  %15 = call i64 @Abc_Clock()
  store i64 %15, ptr %8, align 8
  store i32 0, ptr %9, align 4
  store i32 0, ptr %10, align 4
  store i32 0, ptr %11, align 4
  store i32 0, ptr %12, align 4
  store i32 0, ptr %6, align 4
  br label %16

16:                                               ; preds = %34, %1
  %17 = load i32, ptr %6, align 4
  %18 = load ptr, ptr %2, align 8
  %19 = call i32 @Abc_NtkPiNum(ptr noundef %18)
  %20 = icmp slt i32 %17, %19
  br i1 %20, label %21, label %25

21:                                               ; preds = %16
  %22 = load ptr, ptr %2, align 8
  %23 = load i32, ptr %6, align 4
  %24 = call ptr @Abc_NtkPi(ptr noundef %22, i32 noundef %23)
  store ptr %24, ptr %3, align 8
  br label %25

25:                                               ; preds = %21, %16
  %26 = phi i1 [ false, %16 ], [ true, %21 ]
  br i1 %26, label %27, label %37

27:                                               ; preds = %25
  %28 = load ptr, ptr %3, align 8
  %29 = call i32 @Abc_ObjFanoutNum(ptr noundef %28)
  %30 = icmp sgt i32 %29, 0
  %31 = zext i1 %30 to i32
  %32 = load i32, ptr %12, align 4
  %33 = add nsw i32 %32, %31
  store i32 %33, ptr %12, align 4
  br label %34

34:                                               ; preds = %27
  %35 = load i32, ptr %6, align 4
  %36 = add nsw i32 %35, 1
  store i32 %36, ptr %6, align 4
  br label %16, !llvm.loop !89

37:                                               ; preds = %25
  store i32 0, ptr %6, align 4
  br label %38

38:                                               ; preds = %109, %37
  %39 = load i32, ptr %6, align 4
  %40 = load ptr, ptr %2, align 8
  %41 = call i32 @Abc_NtkPoNum(ptr noundef %40)
  %42 = icmp slt i32 %39, %41
  br i1 %42, label %43, label %47

43:                                               ; preds = %38
  %44 = load ptr, ptr %2, align 8
  %45 = load i32, ptr %6, align 4
  %46 = call ptr @Abc_NtkPo(ptr noundef %44, i32 noundef %45)
  store ptr %46, ptr %3, align 8
  br label %47

47:                                               ; preds = %43, %38
  %48 = phi i1 [ false, %38 ], [ true, %43 ]
  br i1 %48, label %49, label %112

49:                                               ; preds = %47
  %50 = load ptr, ptr %3, align 8
  %51 = call ptr @Abc_ObjChild0(ptr noundef %50)
  store ptr %51, ptr %4, align 8
  %52 = load ptr, ptr %4, align 8
  %53 = load ptr, ptr %5, align 8
  %54 = call ptr @Abc_ObjNot(ptr noundef %53)
  %55 = icmp eq ptr %52, %54
  br i1 %55, label %56, label %59

56:                                               ; preds = %49
  %57 = load i32, ptr %9, align 4
  %58 = add nsw i32 %57, 1
  store i32 %58, ptr %9, align 4
  br label %108

59:                                               ; preds = %49
  %60 = load ptr, ptr %4, align 8
  %61 = load ptr, ptr %5, align 8
  %62 = icmp eq ptr %60, %61
  br i1 %62, label %63, label %71

63:                                               ; preds = %59
  %64 = load i32, ptr %10, align 4
  %65 = add nsw i32 %64, 1
  store i32 %65, ptr %10, align 4
  %66 = load i32, ptr %7, align 4
  %67 = icmp eq i32 %66, -1
  br i1 %67, label %68, label %70

68:                                               ; preds = %63
  %69 = load i32, ptr %6, align 4
  store i32 %69, ptr %7, align 4
  br label %70

70:                                               ; preds = %68, %63
  br label %107

71:                                               ; preds = %59
  %72 = load ptr, ptr %4, align 8
  %73 = call ptr @Abc_ObjRegular(ptr noundef %72)
  %74 = call i32 @Abc_ObjIsPi(ptr noundef %73)
  %75 = icmp ne i32 %74, 0
  br i1 %75, label %76, label %84

76:                                               ; preds = %71
  %77 = load i32, ptr %10, align 4
  %78 = add nsw i32 %77, 1
  store i32 %78, ptr %10, align 4
  %79 = load i32, ptr %7, align 4
  %80 = icmp eq i32 %79, -1
  br i1 %80, label %81, label %83

81:                                               ; preds = %76
  %82 = load i32, ptr %6, align 4
  store i32 %82, ptr %7, align 4
  br label %83

83:                                               ; preds = %81, %76
  br label %106

84:                                               ; preds = %71
  %85 = load ptr, ptr %4, align 8
  %86 = call ptr @Abc_ObjRegular(ptr noundef %85)
  %87 = getelementptr inbounds %struct.Abc_Obj_t_, ptr %86, i32 0, i32 3
  %88 = load i32, ptr %87, align 4
  %89 = lshr i32 %88, 7
  %90 = and i32 %89, 1
  %91 = load ptr, ptr %4, align 8
  %92 = call i32 @Abc_ObjIsComplement(ptr noundef %91)
  %93 = icmp ne i32 %90, %92
  br i1 %93, label %94, label %102

94:                                               ; preds = %84
  %95 = load i32, ptr %10, align 4
  %96 = add nsw i32 %95, 1
  store i32 %96, ptr %10, align 4
  %97 = load i32, ptr %7, align 4
  %98 = icmp eq i32 %97, -1
  br i1 %98, label %99, label %101

99:                                               ; preds = %94
  %100 = load i32, ptr %6, align 4
  store i32 %100, ptr %7, align 4
  br label %101

101:                                              ; preds = %99, %94
  br label %105

102:                                              ; preds = %84
  %103 = load i32, ptr %11, align 4
  %104 = add nsw i32 %103, 1
  store i32 %104, ptr %11, align 4
  br label %105

105:                                              ; preds = %102, %101
  br label %106

106:                                              ; preds = %105, %83
  br label %107

107:                                              ; preds = %106, %70
  br label %108

108:                                              ; preds = %107, %56
  br label %109

109:                                              ; preds = %108
  %110 = load i32, ptr %6, align 4
  %111 = add nsw i32 %110, 1
  store i32 %111, ptr %6, align 4
  br label %38, !llvm.loop !90

112:                                              ; preds = %47
  %113 = load i32, ptr %12, align 4
  %114 = call i32 (ptr, ...) @printf(ptr noundef @.str.134, i32 noundef %113)
  %115 = load ptr, ptr %2, align 8
  %116 = call i32 @Abc_NtkNodeNum(ptr noundef %115)
  %117 = call i32 (ptr, ...) @printf(ptr noundef @.str.135, i32 noundef %116)
  %118 = load i32, ptr %11, align 4
  %119 = call i32 (ptr, ...) @printf(ptr noundef @.str.136, i32 noundef %118)
  %120 = load i32, ptr %9, align 4
  %121 = call i32 (ptr, ...) @printf(ptr noundef @.str.137, i32 noundef %120)
  %122 = load i32, ptr %10, align 4
  %123 = call i32 (ptr, ...) @printf(ptr noundef @.str.138, i32 noundef %122)
  %124 = call i64 @Abc_Clock()
  %125 = load i64, ptr %8, align 8
  %126 = sub nsw i64 %124, %125
  store i64 %126, ptr %8, align 8
  %127 = load i64, ptr %8, align 8
  %128 = sitofp i64 %127 to float
  %129 = fdiv float %128, 1.000000e+06
  %130 = fpext float %129 to double
  %131 = call i32 (ptr, ...) @printf(ptr noundef @.str.139, double noundef %130)
  %132 = load i32, ptr %7, align 4
  %133 = icmp sge i32 %132, 0
  br i1 %133, label %134, label %141

134:                                              ; preds = %112
  %135 = load i32, ptr %7, align 4
  %136 = load ptr, ptr %2, align 8
  %137 = load i32, ptr %7, align 4
  %138 = call ptr @Abc_NtkPo(ptr noundef %136, i32 noundef %137)
  %139 = call ptr @Abc_ObjName(ptr noundef %138)
  %140 = call i32 (ptr, ...) @printf(ptr noundef @.str.140, i32 noundef %135, ptr noundef %139)
  br label %141

141:                                              ; preds = %134, %112
  ret void
}